target datalayout = "e-m:e-p270:32:32-p271:32:32-p272:64:64-i64:64-i128:128-f80:128-n8:16:32:64-S128"
target triple = "x86_64-pc-linux-gnu"

%struct.VP8Encoder = type { ptr, ptr, %struct.VP8EncFilterHeader, %struct.VP8EncSegmentHeader, i32, i32, i32, i32, i32, %struct.VP8BitWriter, [8 x %struct.VP8BitWriter], %struct.VP8TBuffer, i32, i32, ptr, i32, %struct.WebPWorker, [4 x %struct.VP8SegmentInfo], i32, i32, i32, i32, i32, i32, i32, i32, %struct.VP8EncProba, [4 x i64], i64, i32, [3 x [4 x i32]], [3 x i32], i32, i32, i32, i32, i32, i32, i32, ptr, ptr, ptr, ptr, ptr, ptr, ptr }
%struct.VP8EncFilterHeader = type { i32, i32, i32, i32 }
%struct.VP8EncSegmentHeader = type { i32, i32, i32 }
%struct.VP8BitWriter = type { i32, i32, i32, i32, ptr, i64, i64, i32 }
%struct.VP8TBuffer = type { ptr, ptr, ptr, i32, i32, i32 }
%struct.WebPWorker = type { ptr, i32, ptr, ptr, ptr, i32 }
%struct.VP8SegmentInfo = type { %struct.VP8Matrix, %struct.VP8Matrix, %struct.VP8Matrix, i32, i32, i32, i32, i32, i32, i32, i32, i32, i32, i32, i32, i32, i32, i32, i64 }
%struct.VP8Matrix = type { [16 x i16], [16 x i16], [16 x i32], [16 x i32], [16 x i16] }
%struct.VP8EncProba = type { [3 x i8], i8, [4 x [8 x [3 x [11 x i8]]]], [4 x [8 x [3 x [11 x i32]]]], [4 x [8 x [3 x [68 x i16]]]], [4 x [16 x [3 x ptr]]], i32, i32, i32 }
%struct.VP8EncIterator = type { i32, i32, ptr, ptr, ptr, ptr, ptr, ptr, ptr, ptr, ptr, [37 x i8], ptr, i32, [9 x i32], [9 x i32], [4 x [3 x i64]], i64, i64, ptr, i32, i32, i32, i32, [2 x [2 x i8]], ptr, ptr, ptr, ptr, ptr, ptr, [88 x i8], [3359 x i8] }
%struct.VP8ModeScore = type { i64, i64, i64, i64, i64, [16 x i16], [16 x [16 x i16]], [8 x [16 x i16]], i32, [16 x i8], i32, i32, [2 x [3 x i8]] }

@VP8I16ModeOffsets = hidden constant [4 x i16] [i16 0, i16 16, i16 512, i16 528], align 2
@VP8Scan = hidden constant [16 x i16] [i16 0, i16 4, i16 8, i16 12, i16 128, i16 132, i16 136, i16 140, i16 256, i16 260, i16 264, i16 268, i16 384, i16 388, i16 392, i16 396], align 16
@VP8FTransform2 = external global ptr, align 8
@VP8FTransformWHT = external global ptr, align 8
@VP8EncQuantizeBlockWHT = external global ptr, align 8
@VP8EncQuantize2Blocks = external global ptr, align 8
@VP8TransformWHT = external global ptr, align 8
@VP8ITransform = external global ptr, align 8

; Function Attrs: nounwind uwtable
define internal i32 @ReconstructIntra16(ptr noalias noundef %0, ptr noalias noundef %1, ptr noalias noundef %2, i32 noundef %3) #0 {
  %5 = alloca ptr, align 8
  %6 = alloca ptr, align 8
  %7 = alloca ptr, align 8
  %8 = alloca i32, align 4
  %9 = alloca ptr, align 8
  %10 = alloca ptr, align 8
  %11 = alloca ptr, align 8
  %12 = alloca ptr, align 8
  %13 = alloca i32, align 4
  %14 = alloca i32, align 4
  %15 = alloca [16 x [16 x i16]], align 16
  %16 = alloca [16 x i16], align 16
  %17 = alloca i32, align 4
  %18 = alloca i32, align 4
  %19 = alloca i32, align 4
  %20 = alloca i32, align 4
  store ptr %0, ptr %5, align 8
  store ptr %1, ptr %6, align 8
  store ptr %2, ptr %7, align 8
  store i32 %3, ptr %8, align 4
  %21 = load ptr, ptr %5, align 8
  %22 = getelementptr inbounds %struct.VP8EncIterator, ptr %21, i32 0, i32 6
  %23 = load ptr, ptr %22, align 8
  store ptr %23, ptr %9, align 8
  %24 = load ptr, ptr %5, align 8
  %25 = getelementptr inbounds %struct.VP8EncIterator, ptr %24, i32 0, i32 5
  %26 = load ptr, ptr %25, align 8
  %27 = load i32, ptr %8, align 4
  %28 = sext i32 %27 to i64
  %29 = getelementptr inbounds [4 x i16], ptr @VP8I16ModeOffsets, i64 0, i64 %28
  %30 = load i16, ptr %29, align 2
  %31 = zext i16 %30 to i32
  %32 = sext i32 %31 to i64
  %33 = getelementptr inbounds i8, ptr %26, i64 %32
  store ptr %33, ptr %10, align 8
  %34 = load ptr, ptr %5, align 8
  %35 = getelementptr inbounds %struct.VP8EncIterator, ptr %34, i32 0, i32 2
  %36 = load ptr, ptr %35, align 8
  %37 = getelementptr inbounds i8, ptr %36, i64 0
  store ptr %37, ptr %11, align 8
  %38 = load ptr, ptr %9, align 8
  %39 = getelementptr inbounds %struct.VP8Encoder, ptr %38, i32 0, i32 17
  %40 = load ptr, ptr %5, align 8
  %41 = getelementptr inbounds %struct.VP8EncIterator, ptr %40, i32 0, i32 7
  %42 = load ptr, ptr %41, align 8
  %43 = load i8, ptr %42, align 4
  %44 = lshr i8 %43, 5
  %45 = and i8 %44, 3
  %46 = zext i8 %45 to i32
  %47 = zext i32 %46 to i64
  %48 = getelementptr inbounds [4 x %struct.VP8SegmentInfo], ptr %39, i64 0, i64 %47
  store ptr %48, ptr %12, align 8
  store i32 0, ptr %13, align 4
  store i32 0, ptr %14, align 4
  br label %49

49:                                               ; preds = %74, %4
  %50 = load i32, ptr %14, align 4
  %51 = icmp slt i32 %50, 16
  br i1 %51, label %52, label %77

52:                                               ; preds = %49
  %53 = load ptr, ptr @VP8FTransform2, align 8
  %54 = load ptr, ptr %11, align 8
  %55 = load i32, ptr %14, align 4
  %56 = sext i32 %55 to i64
  %57 = getelementptr inbounds [16 x i16], ptr @VP8Scan, i64 0, i64 %56
  %58 = load i16, ptr %57, align 2
  %59 = zext i16 %58 to i32
  %60 = sext i32 %59 to i64
  %61 = getelementptr inbounds i8, ptr %54, i64 %60
  %62 = load ptr, ptr %10, align 8
  %63 = load i32, ptr %14, align 4
  %64 = sext i32 %63 to i64
  %65 = getelementptr inbounds [16 x i16], ptr @VP8Scan, i64 0, i64 %64
  %66 = load i16, ptr %65, align 2
  %67 = zext i16 %66 to i32
  %68 = sext i32 %67 to i64
  %69 = getelementptr inbounds i8, ptr %62, i64 %68
  %70 = load i32, ptr %14, align 4
  %71 = sext i32 %70 to i64
  %72 = getelementptr inbounds [16 x [16 x i16]], ptr %15, i64 0, i64 %71
  %73 = getelementptr inbounds [16 x i16], ptr %72, i64 0, i64 0
  call void %53(ptr noundef %61, ptr noundef %69, ptr noundef %73)
  br label %74

74:                                               ; preds = %52
  %75 = load i32, ptr %14, align 4
  %76 = add nsw i32 %75, 2
  store i32 %76, ptr %14, align 4
  br label %49, !llvm.loop !26

77:                                               ; preds = %49
  %78 = load ptr, ptr @VP8FTransformWHT, align 8
  %79 = getelementptr inbounds [16 x [16 x i16]], ptr %15, i64 0, i64 0
  %80 = getelementptr inbounds [16 x i16], ptr %79, i64 0, i64 0
  %81 = getelementptr inbounds [16 x i16], ptr %16, i64 0, i64 0
  call void %78(ptr noundef %80, ptr noundef %81)
  %82 = load ptr, ptr @VP8EncQuantizeBlockWHT, align 8
  %83 = getelementptr inbounds [16 x i16], ptr %16, i64 0, i64 0
  %84 = load ptr, ptr %6, align 8
  %85 = getelementptr inbounds %struct.VP8ModeScore, ptr %84, i32 0, i32 5
  %86 = getelementptr inbounds [16 x i16], ptr %85, i64 0, i64 0
  %87 = load ptr, ptr %12, align 8
  %88 = getelementptr inbounds %struct.VP8SegmentInfo, ptr %87, i32 0, i32 1
  %89 = call i32 %82(ptr noundef %83, ptr noundef %86, ptr noundef %88)
  %90 = shl i32 %89, 24
  %91 = load i32, ptr %13, align 4
  %92 = or i32 %91, %90
  store i32 %92, ptr %13, align 4
  %93 = load ptr, ptr %5, align 8
  %94 = getelementptr inbounds %struct.VP8EncIterator, ptr %93, i32 0, i32 20
  %95 = load i32, ptr %94, align 8
  %96 = icmp ne i32 %95, 0
  br i1 %96, label %97, label %170

97:                                               ; preds = %77
  %98 = load ptr, ptr %5, align 8
  call void @VP8IteratorNzToBytes(ptr noundef %98)
  store i32 0, ptr %18, align 4
  store i32 0, ptr %14, align 4
  br label %99

99:                                               ; preds = %166, %97
  %100 = load i32, ptr %18, align 4
  %101 = icmp slt i32 %100, 4
  br i1 %101, label %102, label %169

102:                                              ; preds = %99
  store i32 0, ptr %17, align 4
  br label %103

103:                                              ; preds = %160, %102
  %104 = load i32, ptr %17, align 4
  %105 = icmp slt i32 %104, 4
  br i1 %105, label %106, label %165

106:                                              ; preds = %103
  %107 = load ptr, ptr %5, align 8
  %108 = getelementptr inbounds %struct.VP8EncIterator, ptr %107, i32 0, i32 14
  %109 = load i32, ptr %17, align 4
  %110 = sext i32 %109 to i64
  %111 = getelementptr inbounds [9 x i32], ptr %108, i64 0, i64 %110
  %112 = load i32, ptr %111, align 4
  %113 = load ptr, ptr %5, align 8
  %114 = getelementptr inbounds %struct.VP8EncIterator, ptr %113, i32 0, i32 15
  %115 = load i32, ptr %18, align 4
  %116 = sext i32 %115 to i64
  %117 = getelementptr inbounds [9 x i32], ptr %114, i64 0, i64 %116
  %118 = load i32, ptr %117, align 4
  %119 = add nsw i32 %112, %118
  store i32 %119, ptr %19, align 4
  %120 = load ptr, ptr %9, align 8
  %121 = load i32, ptr %14, align 4
  %122 = sext i32 %121 to i64
  %123 = getelementptr inbounds [16 x [16 x i16]], ptr %15, i64 0, i64 %122
  %124 = getelementptr inbounds [16 x i16], ptr %123, i64 0, i64 0
  %125 = load ptr, ptr %6, align 8
  %126 = getelementptr inbounds %struct.VP8ModeScore, ptr %125, i32 0, i32 6
  %127 = load i32, ptr %14, align 4
  %128 = sext i32 %127 to i64
  %129 = getelementptr inbounds [16 x [16 x i16]], ptr %126, i64 0, i64 %128
  %130 = getelementptr inbounds [16 x i16], ptr %129, i64 0, i64 0
  %131 = load i32, ptr %19, align 4
  %132 = load ptr, ptr %12, align 8
  %133 = getelementptr inbounds %struct.VP8SegmentInfo, ptr %132, i32 0, i32 0
  %134 = load ptr, ptr %12, align 8
  %135 = getelementptr inbounds %struct.VP8SegmentInfo, ptr %134, i32 0, i32 15
  %136 = load i32, ptr %135, align 8
  %137 = call i32 @TrellisQuantizeBlock(ptr noundef %120, ptr noundef %124, ptr noundef %130, i32 noundef %131, i32 noundef 0, ptr noundef %133, i32 noundef %136)
  store i32 %137, ptr %20, align 4
  %138 = load i32, ptr %20, align 4
  %139 = load ptr, ptr %5, align 8
  %140 = getelementptr inbounds %struct.VP8EncIterator, ptr %139, i32 0, i32 15
  %141 = load i32, ptr %18, align 4
  %142 = sext i32 %141 to i64
  %143 = getelementptr inbounds [9 x i32], ptr %140, i64 0, i64 %142
  store i32 %138, ptr %143, align 4
  %144 = load ptr, ptr %5, align 8
  %145 = getelementptr inbounds %struct.VP8EncIterator, ptr %144, i32 0, i32 14
  %146 = load i32, ptr %17, align 4
  %147 = sext i32 %146 to i64
  %148 = getelementptr inbounds [9 x i32], ptr %145, i64 0, i64 %147
  store i32 %138, ptr %148, align 4
  %149 = load ptr, ptr %6, align 8
  %150 = getelementptr inbounds %struct.VP8ModeScore, ptr %149, i32 0, i32 6
  %151 = load i32, ptr %14, align 4
  %152 = sext i32 %151 to i64
  %153 = getelementptr inbounds [16 x [16 x i16]], ptr %150, i64 0, i64 %152
  %154 = getelementptr inbounds [16 x i16], ptr %153, i64 0, i64 0
  store i16 0, ptr %154, align 8
  %155 = load i32, ptr %20, align 4
  %156 = load i32, ptr %14, align 4
  %157 = shl i32 %155, %156
  %158 = load i32, ptr %13, align 4
  %159 = or i32 %158, %157
  store i32 %159, ptr %13, align 4
  br label %160

160:                                              ; preds = %106
  %161 = load i32, ptr %17, align 4
  %162 = add nsw i32 %161, 1
  store i32 %162, ptr %17, align 4
  %163 = load i32, ptr %14, align 4
  %164 = add nsw i32 %163, 1
  store i32 %164, ptr %14, align 4
  br label %103, !llvm.loop !27

165:                                              ; preds = %103
  br label %166

166:                                              ; preds = %165
  %167 = load i32, ptr %18, align 4
  %168 = add nsw i32 %167, 1
  store i32 %168, ptr %18, align 4
  br label %99, !llvm.loop !28

169:                                              ; preds = %99
  br label %206

170:                                              ; preds = %77
  store i32 0, ptr %14, align 4
  br label %171

171:                                              ; preds = %202, %170
  %172 = load i32, ptr %14, align 4
  %173 = icmp slt i32 %172, 16
  br i1 %173, label %174, label %205

174:                                              ; preds = %171
  %175 = load i32, ptr %14, align 4
  %176 = add nsw i32 %175, 1
  %177 = sext i32 %176 to i64
  %178 = getelementptr inbounds [16 x [16 x i16]], ptr %15, i64 0, i64 %177
  %179 = getelementptr inbounds [16 x i16], ptr %178, i64 0, i64 0
  store i16 0, ptr %179, align 16
  %180 = load i32, ptr %14, align 4
  %181 = sext i32 %180 to i64
  %182 = getelementptr inbounds [16 x [16 x i16]], ptr %15, i64 0, i64 %181
  %183 = getelementptr inbounds [16 x i16], ptr %182, i64 0, i64 0
  store i16 0, ptr %183, align 16
  %184 = load ptr, ptr @VP8EncQuantize2Blocks, align 8
  %185 = load i32, ptr %14, align 4
  %186 = sext i32 %185 to i64
  %187 = getelementptr inbounds [16 x [16 x i16]], ptr %15, i64 0, i64 %186
  %188 = getelementptr inbounds [16 x i16], ptr %187, i64 0, i64 0
  %189 = load ptr, ptr %6, align 8
  %190 = getelementptr inbounds %struct.VP8ModeScore, ptr %189, i32 0, i32 6
  %191 = load i32, ptr %14, align 4
  %192 = sext i32 %191 to i64
  %193 = getelementptr inbounds [16 x [16 x i16]], ptr %190, i64 0, i64 %192
  %194 = getelementptr inbounds [16 x i16], ptr %193, i64 0, i64 0
  %195 = load ptr, ptr %12, align 8
  %196 = getelementptr inbounds %struct.VP8SegmentInfo, ptr %195, i32 0, i32 0
  %197 = call i32 %184(ptr noundef %188, ptr noundef %194, ptr noundef %196)
  %198 = load i32, ptr %14, align 4
  %199 = shl i32 %197, %198
  %200 = load i32, ptr %13, align 4
  %201 = or i32 %200, %199
  store i32 %201, ptr %13, align 4
  br label %202

202:                                              ; preds = %174
  %203 = load i32, ptr %14, align 4
  %204 = add nsw i32 %203, 2
  store i32 %204, ptr %14, align 4
  br label %171, !llvm.loop !29

205:                                              ; preds = %171
  br label %206

206:                                              ; preds = %205, %169
  %207 = load ptr, ptr @VP8TransformWHT, align 8
  %208 = getelementptr inbounds [16 x i16], ptr %16, i64 0, i64 0
  %209 = getelementptr inbounds [16 x [16 x i16]], ptr %15, i64 0, i64 0
  %210 = getelementptr inbounds [16 x i16], ptr %209, i64 0, i64 0
  call void %207(ptr noundef %208, ptr noundef %210)
  store i32 0, ptr %14, align 4
  br label %211

211:                                              ; preds = %236, %206
  %212 = load i32, ptr %14, align 4
  %213 = icmp slt i32 %212, 16
  br i1 %213, label %214, label %239

214:                                              ; preds = %211
  %215 = load ptr, ptr @VP8ITransform, align 8
  %216 = load ptr, ptr %10, align 8
  %217 = load i32, ptr %14, align 4
  %218 = sext i32 %217 to i64
  %219 = getelementptr inbounds [16 x i16], ptr @VP8Scan, i64 0, i64 %218
  %220 = load i16, ptr %219, align 2
  %221 = zext i16 %220 to i32
  %222 = sext i32 %221 to i64
  %223 = getelementptr inbounds i8, ptr %216, i64 %222
  %224 = load i32, ptr %14, align 4
  %225 = sext i32 %224 to i64
  %226 = getelementptr inbounds [16 x [16 x i16]], ptr %15, i64 0, i64 %225
  %227 = getelementptr inbounds [16 x i16], ptr %226, i64 0, i64 0
  %228 = load ptr, ptr %7, align 8
  %229 = load i32, ptr %14, align 4
  %230 = sext i32 %229 to i64
  %231 = getelementptr inbounds [16 x i16], ptr @VP8Scan, i64 0, i64 %230
  %232 = load i16, ptr %231, align 2
  %233 = zext i16 %232 to i32
  %234 = sext i32 %233 to i64
  %235 = getelementptr inbounds i8, ptr %228, i64 %234
  call void %215(ptr noundef %223, ptr noundef %227, ptr noundef %235, i32 noundef 1)
  br label %236

236:                                              ; preds = %214
  %237 = load i32, ptr %14, align 4
  %238 = add nsw i32 %237, 2
  store i32 %238, ptr %14, align 4
  br label %211, !llvm.loop !30

239:                                              ; preds = %211
  %240 = load i32, ptr %13, align 4
  ret i32 %240
}