; Function Attrs: nounwind uwtable
define internal fastcc i32 @ReconstructIntra16(ptr noalias noundef %0, ptr noalias noundef %1, ptr noalias noundef %2, i32 noundef %3) unnamed_addr #0 {
  %5 = alloca [16 x [16 x i16]], align 16
  %6 = alloca [16 x i16], align 16
  %7 = getelementptr inbounds i8, ptr %0, i64 40
  %8 = load ptr, ptr %7, align 8
  %9 = getelementptr inbounds i8, ptr %0, i64 32
  %10 = load ptr, ptr %9, align 8
  %11 = sext i32 %3 to i64
  %12 = getelementptr inbounds [4 x i16], ptr @VP8I16ModeOffsets, i64 0, i64 %11
  %13 = load i16, ptr %12, align 2
  %14 = zext i16 %13 to i64
  %15 = getelementptr inbounds i8, ptr %10, i64 %14
  %16 = getelementptr inbounds i8, ptr %0, i64 8
  %17 = load ptr, ptr %16, align 8
  %18 = getelementptr inbounds i8, ptr %0, i64 48
  %19 = load ptr, ptr %18, align 8
  %20 = load i8, ptr %19, align 4
  %21 = lshr i8 %20, 5
  %22 = and i8 %21, 3
  %23 = zext nneg i8 %22 to i64
  br label %24

24:                                               ; preds = %4, %24
  %indvars.iv = phi i64 [ 0, %4 ], [ %indvars.iv.next, %24 ]
  %25 = load ptr, ptr @VP8FTransform2, align 8
  %26 = getelementptr inbounds [16 x i16], ptr @VP8Scan, i64 0, i64 %indvars.iv
  %27 = load i16, ptr %26, align 4
  %28 = zext i16 %27 to i64
  %29 = getelementptr inbounds i8, ptr %17, i64 %28
  %30 = getelementptr inbounds i8, ptr %15, i64 %28
  %31 = getelementptr inbounds [16 x [16 x i16]], ptr %5, i64 0, i64 %indvars.iv
  call void %25(ptr noundef %29, ptr noundef %30, ptr noundef nonnull %31) #11
  %indvars.iv.next = add nuw nsw i64 %indvars.iv, 2
  %32 = icmp ult i64 %indvars.iv, 14
  br i1 %32, label %24, label %33, !llvm.loop !131

33:                                               ; preds = %24
  %34 = getelementptr inbounds i8, ptr %8, i64 608
  %35 = getelementptr inbounds [4 x %struct.VP8SegmentInfo], ptr %34, i64 0, i64 %23
  %36 = load ptr, ptr @VP8FTransformWHT, align 8
  call void %36(ptr noundef nonnull %5, ptr noundef nonnull %6) #11
  %37 = load ptr, ptr @VP8EncQuantizeBlockWHT, align 8
  %38 = getelementptr inbounds i8, ptr %1, i64 40
  %39 = getelementptr inbounds i8, ptr %35, i64 224
  %40 = call i32 %37(ptr noundef nonnull %6, ptr noundef nonnull %38, ptr noundef nonnull %39) #11
  %41 = shl i32 %40, 24
  %42 = getelementptr inbounds i8, ptr %0, i64 328
  %43 = load i32, ptr %42, align 8
  %.not = icmp eq i32 %43, 0
  br i1 %.not, label %.preheader, label %45

.preheader:                                       ; preds = %33
  %44 = getelementptr inbounds i8, ptr %1, i64 72
  br label %64

45:                                               ; preds = %33
  call void @VP8IteratorNzToBytes(ptr noundef nonnull %0) #11
  %46 = getelementptr inbounds i8, ptr %0, i64 132
  %47 = getelementptr inbounds i8, ptr %0, i64 168
  %48 = getelementptr inbounds i8, ptr %1, i64 72
  %49 = getelementptr inbounds i8, ptr %35, i64 720
  %.pre.pre = load i32, ptr %49, align 8
  br label %.preheader67

.preheader67:                                     ; preds = %45, %63
  %indvars.iv90 = phi i64 [ 0, %45 ], [ %indvars.iv.next91, %63 ]
  %.075 = phi i32 [ %41, %45 ], [ %62, %63 ]
  %.16274 = phi i64 [ 0, %45 ], [ %indvars.iv.next84, %63 ]
  %50 = getelementptr inbounds [9 x i32], ptr %47, i64 0, i64 %indvars.iv90
  %sext = shl i64 %.16274, 32
  %51 = ashr exact i64 %sext, 32
  br label %52

52:                                               ; preds = %.preheader67, %52
  %indvars.iv85 = phi i64 [ 0, %.preheader67 ], [ %indvars.iv.next86, %52 ]
  %indvars.iv83 = phi i64 [ %51, %.preheader67 ], [ %indvars.iv.next84, %52 ]
  %.172 = phi i32 [ %.075, %.preheader67 ], [ %62, %52 ]
  %53 = getelementptr inbounds [9 x i32], ptr %46, i64 0, i64 %indvars.iv85
  %54 = load i32, ptr %53, align 4
  %55 = load i32, ptr %50, align 4
  %56 = add nsw i32 %55, %54
  %57 = getelementptr inbounds [16 x [16 x i16]], ptr %5, i64 0, i64 %indvars.iv83
  %58 = getelementptr inbounds [16 x [16 x i16]], ptr %48, i64 0, i64 %indvars.iv83
  %59 = call fastcc i32 @TrellisQuantizeBlock(ptr noundef %8, ptr noundef nonnull %57, ptr noundef nonnull %58, i32 noundef %56, i32 noundef 0, ptr noundef nonnull %35, i32 noundef %.pre.pre)
  store i32 %59, ptr %50, align 4
  store i32 %59, ptr %53, align 4
  store i16 0, ptr %58, align 8
  %60 = trunc nsw i64 %indvars.iv83 to i32
  %61 = shl nuw i32 %59, %60
  %62 = or i32 %61, %.172
  %indvars.iv.next86 = add nuw nsw i64 %indvars.iv85, 1
  %indvars.iv.next84 = add nsw i64 %indvars.iv83, 1
  %exitcond.not = icmp eq i64 %indvars.iv.next86, 4
  br i1 %exitcond.not, label %63, label %52, !llvm.loop !132

63:                                               ; preds = %52
  %indvars.iv.next91 = add nuw nsw i64 %indvars.iv90, 1
  %exitcond93.not = icmp eq i64 %indvars.iv.next91, 4
  br i1 %exitcond93.not, label %.loopexit, label %.preheader67, !llvm.loop !133

64:                                               ; preds = %.preheader, %64
  %indvars.iv94 = phi i64 [ 0, %.preheader ], [ %indvars.iv.next95, %64 ]
  %.277 = phi i32 [ %41, %.preheader ], [ %73, %64 ]
  %65 = or disjoint i64 %indvars.iv94, 1
  %66 = getelementptr inbounds [16 x [16 x i16]], ptr %5, i64 0, i64 %65
  store i16 0, ptr %66, align 16
  %67 = getelementptr inbounds [16 x [16 x i16]], ptr %5, i64 0, i64 %indvars.iv94
  store i16 0, ptr %67, align 16
  %68 = load ptr, ptr @VP8EncQuantize2Blocks, align 8
  %69 = getelementptr inbounds [16 x [16 x i16]], ptr %44, i64 0, i64 %indvars.iv94
  %70 = call i32 %68(ptr noundef nonnull %67, ptr noundef nonnull %69, ptr noundef nonnull %35) #11
  %71 = trunc nuw nsw i64 %indvars.iv94 to i32
  %72 = shl i32 %70, %71
  %73 = or i32 %72, %.277
  %indvars.iv.next95 = add nuw nsw i64 %indvars.iv94, 2
  %74 = icmp ult i64 %indvars.iv94, 14
  br i1 %74, label %64, label %.loopexit, !llvm.loop !134

.loopexit:                                        ; preds = %63, %64
  %.3 = phi i32 [ %73, %64 ], [ %62, %63 ]
  %75 = load ptr, ptr @VP8TransformWHT, align 8
  call void %75(ptr noundef nonnull %6, ptr noundef nonnull %5) #11
  br label %76

76:                                               ; preds = %.loopexit, %76
  %indvars.iv97 = phi i64 [ 0, %.loopexit ], [ %indvars.iv.next98, %76 ]
  %77 = load ptr, ptr @VP8ITransform, align 8
  %78 = getelementptr inbounds [16 x i16], ptr @VP8Scan, i64 0, i64 %indvars.iv97
  %79 = load i16, ptr %78, align 4
  %80 = zext i16 %79 to i64
  %81 = getelementptr inbounds i8, ptr %15, i64 %80
  %82 = getelementptr inbounds [16 x [16 x i16]], ptr %5, i64 0, i64 %indvars.iv97
  %83 = getelementptr inbounds i8, ptr %2, i64 %80
  call void %77(ptr noundef %81, ptr noundef nonnull %82, ptr noundef %83, i32 noundef 1) #11
  %indvars.iv.next98 = add nuw nsw i64 %indvars.iv97, 2
  %84 = icmp ult i64 %indvars.iv97, 14
  br i1 %84, label %76, label %85, !llvm.loop !135

85:                                               ; preds = %76
  ret i32 %.3
}